; Function Attrs: mustprogress uwtable
define void @_ZN6casadi11conic_debugERKNS_8FunctionERKNSt7__cxx1112basic_stringIcSt11char_traitsIcESaIcEEE(ptr noundef nonnull align 8 dereferenceable(8) %0, ptr noundef nonnull readonly align 8 captures(none) dereferenceable(32) %1) local_unnamed_addr #4 personality ptr @__gxx_personality_v0 {
  %3 = alloca %"class.std::basic_ofstream", align 8
  call void @llvm.lifetime.start.p0(i64 512, ptr nonnull %3) #33
  call void @_ZNSt14basic_ofstreamIcSt11char_traitsIcEEC1Ev(ptr noundef nonnull align 8 dereferenceable(248) %3)
  %4 = load ptr, ptr %1, align 8, !tbaa !11
  %5 = getelementptr inbounds nuw i8, ptr %3, i64 8
  %6 = invoke noundef ptr @_ZNSt13basic_filebufIcSt11char_traitsIcEE4openEPKcSt13_Ios_Openmode(ptr noundef nonnull align 8 dereferenceable(240) %5, ptr noundef %4, i32 noundef 16)
          to label %.noexc unwind label %17

.noexc:                                           ; preds = %2
  %.not.i = icmp eq ptr %6, null
  %7 = load ptr, ptr %3, align 8, !tbaa !29
  %8 = getelementptr i8, ptr %7, i64 -24
  %9 = load i64, ptr %8, align 8
  %10 = getelementptr inbounds i8, ptr %3, i64 %9
  br i1 %.not.i, label %11, label %15

11:                                               ; preds = %.noexc
  %12 = getelementptr inbounds nuw i8, ptr %10, i64 32
  %13 = load i32, ptr %12, align 8, !tbaa !71
  %14 = or i32 %13, 4
  br label %15

15:                                               ; preds = %11, %.noexc
  %.sink.i = phi i32 [ %14, %11 ], [ 0, %.noexc ]
  invoke void @_ZNSt9basic_iosIcSt11char_traitsIcEE5clearESt12_Ios_Iostate(ptr noundef nonnull align 8 dereferenceable(264) %10, i32 noundef %.sink.i)
          to label %_ZNSt14basic_ofstreamIcSt11char_traitsIcEE4openEPKcSt13_Ios_Openmode.exit unwind label %17

_ZNSt14basic_ofstreamIcSt11char_traitsIcEE4openEPKcSt13_Ios_Openmode.exit: ; preds = %15
  invoke void @_ZN6casadi11conic_debugERKNS_8FunctionERSo(ptr noundef nonnull align 8 dereferenceable(8) %0, ptr noundef nonnull align 8 dereferenceable(8) %3)
          to label %16 unwind label %17

16:                                               ; preds = %_ZNSt14basic_ofstreamIcSt11char_traitsIcEE4openEPKcSt13_Ios_Openmode.exit
  call void @_ZNSt14basic_ofstreamIcSt11char_traitsIcEED1Ev(ptr noundef nonnull align 8 dereferenceable(248) %3) #33
  call void @llvm.lifetime.end.p0(i64 512, ptr nonnull %3) #33
  ret void

17:                                               ; preds = %15, %2, %_ZNSt14basic_ofstreamIcSt11char_traitsIcEE4openEPKcSt13_Ios_Openmode.exit
  %18 = landingpad { ptr, i32 }
          cleanup
  call void @_ZNSt14basic_ofstreamIcSt11char_traitsIcEED1Ev(ptr noundef nonnull align 8 dereferenceable(248) %3) #33
  call void @llvm.lifetime.end.p0(i64 512, ptr nonnull %3) #33
  resume { ptr, i32 } %18
}